; Function Attrs: nounwind uwtable
define internal ptr @odictitems_reversed(ptr noundef readonly captures(none) %0, ptr readnone captures(none) %1) #0 {
  %3 = getelementptr inbounds nuw i8, ptr %0, i64 16
  %4 = load ptr, ptr %3, align 8, !tbaa !142
  %5 = icmp eq ptr %4, null
  br i1 %5, label %8, label %6

6:                                                ; preds = %2
  %7 = tail call fastcc ptr @odictiter_new(ptr noundef nonnull %4, i32 noundef 7)
  br label %8

8:                                                ; preds = %2, %6
  %.0 = phi ptr [ %7, %6 ], [ @_Py_NoneStruct, %2 ]
  ret ptr %.0
}